; Function Attrs: mustprogress uwtable
define internal fastcc noundef ptr @_ZL20mk_no_cut_smt_tacticR11ast_managerj(ptr noundef nonnull align 8 dereferenceable(976) %m, i32 noundef %rs) unnamed_addr #3 personality ptr @__gxx_personality_v0 {
entry:
  %solver_p = alloca %class.params_ref, align 8
  %ref.tmp = alloca %class.symbol, align 8
  %ref.tmp1 = alloca %class.symbol, align 8
  %ref.tmp6 = alloca %class.params_ref, align 8
  store ptr null, ptr %solver_p, align 8
  invoke void @_ZN6symbolC1EPKc(ptr noundef nonnull align 8 dereferenceable(8) %ref.tmp, ptr noundef nonnull @.str.26)
          to label %invoke.cont unwind label %lpad

invoke.cont:                                      ; preds = %entry
  invoke void @_ZN6symbolC1EPKc(ptr noundef nonnull align 8 dereferenceable(8) %ref.tmp1, ptr noundef nonnull @.str.27)
          to label %invoke.cont2 unwind label %lpad

invoke.cont2:                                     ; preds = %invoke.cont
  invoke void @_ZN10params_ref7set_symERK6symbolS2_(ptr noundef nonnull align 8 dereferenceable(8) %solver_p, ptr noundef nonnull align 8 dereferenceable(8) %ref.tmp, ptr noundef nonnull align 8 dereferenceable(8) %ref.tmp1)
          to label %invoke.cont3 unwind label %lpad

invoke.cont3:                                     ; preds = %invoke.cont2
  invoke void @_ZN10params_ref8set_uintEPKcj(ptr noundef nonnull align 8 dereferenceable(8) %solver_p, ptr noundef nonnull @.str.28, i32 noundef 10000000)
          to label %invoke.cont4 unwind label %lpad

invoke.cont4:                                     ; preds = %invoke.cont3
  invoke void @_ZN10params_ref8set_uintEPKcj(ptr noundef nonnull align 8 dereferenceable(8) %solver_p, ptr noundef nonnull @.str.29, i32 noundef %rs)
          to label %invoke.cont5 unwind label %lpad

invoke.cont5:                                     ; preds = %invoke.cont4
  store ptr null, ptr %ref.tmp6, align 8
  %call = invoke noundef ptr @_Z19mk_smt_tactic_usingR11ast_managerbRK10params_ref(ptr noundef nonnull align 8 dereferenceable(976) %m, i1 noundef zeroext false, ptr noundef nonnull align 8 dereferenceable(8) %ref.tmp6)
          to label %invoke.cont9 unwind label %lpad8

invoke.cont9:                                     ; preds = %invoke.cont5
  %call11 = invoke noundef ptr @_Z12using_paramsP6tacticRK10params_ref(ptr noundef %call, ptr noundef nonnull align 8 dereferenceable(8) %solver_p)
          to label %invoke.cont10 unwind label %lpad8

invoke.cont10:                                    ; preds = %invoke.cont9
  %call13 = invoke noundef ptr @_Z15annotate_tacticPKcP6tactic(ptr noundef nonnull @.str.30, ptr noundef %call11)
          to label %invoke.cont12 unwind label %lpad8

invoke.cont12:                                    ; preds = %invoke.cont10
  call void @_ZN10params_refD1Ev(ptr noundef nonnull align 8 dereferenceable(8) %ref.tmp6) #16
  call void @_ZN10params_refD1Ev(ptr noundef nonnull align 8 dereferenceable(8) %solver_p) #16
  ret ptr %call13

lpad:                                             ; preds = %invoke.cont4, %invoke.cont3, %invoke.cont2, %invoke.cont, %entry
  %0 = landingpad { ptr, i32 }
          cleanup
  br label %ehcleanup

lpad8:                                            ; preds = %invoke.cont10, %invoke.cont9, %invoke.cont5
  %1 = landingpad { ptr, i32 }
          cleanup
  call void @_ZN10params_refD1Ev(ptr noundef nonnull align 8 dereferenceable(8) %ref.tmp6) #16
  br label %ehcleanup

ehcleanup:                                        ; preds = %lpad8, %lpad
  %.pn = phi { ptr, i32 } [ %1, %lpad8 ], [ %0, %lpad ]
  call void @_ZN10params_refD1Ev(ptr noundef nonnull align 8 dereferenceable(8) %solver_p) #16
  resume { ptr, i32 } %.pn
}